target datalayout = "e-m:e-p270:32:32-p271:32:32-p272:64:64-i64:64-f80:128-n8:16:32:64-S128"
target triple = "x86_64-pc-linux-gnu"

@.str = private unnamed_addr constant [3 x i8] c"%d\00", align 1
@.str.1 = private unnamed_addr constant [3 x i8] c"%s\00", align 1
@.str.2 = private unnamed_addr constant [4 x i8] c"%d\0A\00", align 1
@.str.3 = private unnamed_addr constant [4 x i8] c"%s\0A\00", align 1
@.str.4 = private unnamed_addr constant [4 x i8] c"NO\0A\00", align 1

; Function Attrs: noinline nounwind uwtable
define dso_local i32 @main() #0 {
  %1 = alloca i32, align 4
  %2 = alloca i32, align 4
  %3 = alloca i32, align 4
  %4 = alloca i32, align 4
  %5 = alloca i32, align 4
  %6 = alloca i32, align 4
  %7 = alloca i32, align 4
  %8 = alloca [501 x i8], align 16
  %9 = alloca i32, align 4
  %10 = alloca i8*, align 8
  %11 = alloca i64, align 8
  %12 = alloca i64, align 8
  %13 = alloca i64, align 8
  store i32 0, i32* %1, align 4
  %14 = call i32 (i8*, ...) @__isoc99_scanf(i8* getelementptr inbounds ([3 x i8], [3 x i8]* @.str, i64 0, i64 0), i32* %2)
  %15 = getelementptr inbounds [501 x i8], [501 x i8]* %8, i64 0, i64 0
  %16 = call i32 (i8*, ...) @__isoc99_scanf(i8* getelementptr inbounds ([3 x i8], [3 x i8]* @.str.1, i64 0, i64 0), i8* %15)
  %17 = getelementptr inbounds [501 x i8], [501 x i8]* %8, i64 0, i64 0
  %18 = call i64 @strlen(i8* %17) #4
  %19 = trunc i64 %18 to i32
  store i32 %19, i32* %3, align 4
  %20 = load i32, i32* %3, align 4
  %21 = add nsw i32 %20, 1
  %22 = load i32, i32* %2, align 4
  %23 = sub nsw i32 %21, %22
  store i32 %23, i32* %9, align 4
  %24 = load i32, i32* %9, align 4
  %25 = zext i32 %24 to i64
  %26 = call i8* @llvm.stacksave()
  store i8* %26, i8** %10, align 8
  %27 = alloca i32, i64 %25, align 16
  store i64 %25, i64* %11, align 8
  %28 = load i32, i32* %3, align 4
  %29 = add nsw i32 %28, 1
  %30 = load i32, i32* %2, align 4
  %31 = sub nsw i32 %29, %30
  %32 = zext i32 %31 to i64
  %33 = load i32, i32* %2, align 4
  %34 = add nsw i32 %33, 1
  %35 = zext i32 %34 to i64
  %36 = mul nuw i64 %32, %35
  %37 = alloca i8, i64 %36, align 16
  store i64 %32, i64* %12, align 8
  store i64 %35, i64* %13, align 8
  store i32 0, i32* %4, align 4
  br label %38

38:                                               ; preds = %75, %0
  %39 = load i32, i32* %4, align 4
  %40 = load i32, i32* %3, align 4
  %41 = add nsw i32 %40, 1
  %42 = load i32, i32* %2, align 4
  %43 = sub nsw i32 %41, %42
  %44 = icmp slt i32 %39, %43
  br i1 %44, label %45, label %78

45:                                               ; preds = %38
  store i32 0, i32* %5, align 4
  br label %46

46:                                               ; preds = %64, %45
  %47 = load i32, i32* %5, align 4
  %48 = load i32, i32* %2, align 4
  %49 = icmp slt i32 %47, %48
  br i1 %49, label %50, label %67

50:                                               ; preds = %46
  %51 = load i32, i32* %4, align 4
  %52 = load i32, i32* %5, align 4
  %53 = add nsw i32 %51, %52
  %54 = sext i32 %53 to i64
  %55 = getelementptr inbounds [501 x i8], [501 x i8]* %8, i64 0, i64 %54
  %56 = load i8, i8* %55, align 1
  %57 = load i32, i32* %4, align 4
  %58 = sext i32 %57 to i64
  %59 = mul nsw i64 %58, %35
  %60 = getelementptr inbounds i8, i8* %37, i64 %59
  %61 = load i32, i32* %5, align 4
  %62 = sext i32 %61 to i64
  %63 = getelementptr inbounds i8, i8* %60, i64 %62
  store i8 %56, i8* %63, align 1
  br label %64

64:                                               ; preds = %50
  %65 = load i32, i32* %5, align 4
  %66 = add nsw i32 %65, 1
  store i32 %66, i32* %5, align 4
  br label %46

67:                                               ; preds = %46
  %68 = load i32, i32* %4, align 4
  %69 = sext i32 %68 to i64
  %70 = mul nsw i64 %69, %35
  %71 = getelementptr inbounds i8, i8* %37, i64 %70
  %72 = load i32, i32* %2, align 4
  %73 = sext i32 %72 to i64
  %74 = getelementptr inbounds i8, i8* %71, i64 %73
  store i8 0, i8* %74, align 1
  br label %75

75:                                               ; preds = %67
  %76 = load i32, i32* %4, align 4
  %77 = add nsw i32 %76, 1
  store i32 %77, i32* %4, align 4
  br label %38

78:                                               ; preds = %38
  store i32 0, i32* %4, align 4
  br label %79

79:                                               ; preds = %87, %78
  %80 = load i32, i32* %4, align 4
  %81 = load i32, i32* %9, align 4
  %82 = icmp slt i32 %80, %81
  br i1 %82, label %83, label %90

83:                                               ; preds = %79
  %84 = load i32, i32* %4, align 4
  %85 = sext i32 %84 to i64
  %86 = getelementptr inbounds i32, i32* %27, i64 %85
  store i32 0, i32* %86, align 4
  br label %87

87:                                               ; preds = %83
  %88 = load i32, i32* %4, align 4
  %89 = add nsw i32 %88, 1
  store i32 %89, i32* %4, align 4
  br label %79

90:                                               ; preds = %79
  %91 = getelementptr inbounds i32, i32* %27, i64 0
  store i32 1, i32* %91, align 16
  store i32 1, i32* %4, align 4
  br label %92

92:                                               ; preds = %132, %90
  %93 = load i32, i32* %4, align 4
  %94 = load i32, i32* %9, align 4
  %95 = icmp slt i32 %93, %94
  br i1 %95, label %96, label %135

96:                                               ; preds = %92
  store i32 0, i32* %6, align 4
  store i32 0, i32* %5, align 4
  br label %97

97:                                               ; preds = %119, %96
  %98 = load i32, i32* %5, align 4
  %99 = load i32, i32* %4, align 4
  %100 = icmp slt i32 %98, %99
  br i1 %100, label %101, label %122

101:                                              ; preds = %97
  %102 = load i32, i32* %4, align 4
  %103 = sext i32 %102 to i64
  %104 = mul nsw i64 %103, %35
  %105 = getelementptr inbounds i8, i8* %37, i64 %104
  %106 = load i32, i32* %5, align 4
  %107 = sext i32 %106 to i64
  %108 = mul nsw i64 %107, %35
  %109 = getelementptr inbounds i8, i8* %37, i64 %108
  %110 = call i32 @strcmp(i8* %105, i8* %109) #4
  %111 = icmp eq i32 %110, 0
  br i1 %111, label %112, label %118

112:                                              ; preds = %101
  %113 = load i32, i32* %5, align 4
  %114 = sext i32 %113 to i64
  %115 = getelementptr inbounds i32, i32* %27, i64 %114
  %116 = load i32, i32* %115, align 4
  %117 = add nsw i32 %116, 1
  store i32 %117, i32* %115, align 4
  store i32 1, i32* %6, align 4
  br label %122

118:                                              ; preds = %101
  br label %119

119:                                              ; preds = %118
  %120 = load i32, i32* %5, align 4
  %121 = add nsw i32 %120, 1
  store i32 %121, i32* %5, align 4
  br label %97

122:                                              ; preds = %112, %97
  %123 = load i32, i32* %6, align 4
  %124 = icmp eq i32 %123, 0
  br i1 %124, label %125, label %131

125:                                              ; preds = %122
  %126 = load i32, i32* %4, align 4
  %127 = sext i32 %126 to i64
  %128 = getelementptr inbounds i32, i32* %27, i64 %127
  %129 = load i32, i32* %128, align 4
  %130 = add nsw i32 %129, 1
  store i32 %130, i32* %128, align 4
  br label %131

131:                                              ; preds = %125, %122
  br label %132

132:                                              ; preds = %131
  %133 = load i32, i32* %4, align 4
  %134 = add nsw i32 %133, 1
  store i32 %134, i32* %4, align 4
  br label %92

135:                                              ; preds = %92
  %136 = getelementptr inbounds i32, i32* %27, i64 0
  %137 = load i32, i32* %136, align 16
  store i32 %137, i32* %7, align 4
  store i32 1, i32* %4, align 4
  br label %138

138:                                              ; preds = %155, %135
  %139 = load i32, i32* %4, align 4
  %140 = load i32, i32* %9, align 4
  %141 = icmp slt i32 %139, %140
  br i1 %141, label %142, label %158

142:                                              ; preds = %138
  %143 = load i32, i32* %4, align 4
  %144 = sext i32 %143 to i64
  %145 = getelementptr inbounds i32, i32* %27, i64 %144
  %146 = load i32, i32* %145, align 4
  %147 = load i32, i32* %7, align 4
  %148 = icmp sgt i32 %146, %147
  br i1 %148, label %149, label %154

149:                                              ; preds = %142
  %150 = load i32, i32* %4, align 4
  %151 = sext i32 %150 to i64
  %152 = getelementptr inbounds i32, i32* %27, i64 %151
  %153 = load i32, i32* %152, align 4
  store i32 %153, i32* %7, align 4
  br label %154

154:                                              ; preds = %149, %142
  br label %155

155:                                              ; preds = %154
  %156 = load i32, i32* %4, align 4
  %157 = add nsw i32 %156, 1
  store i32 %157, i32* %4, align 4
  br label %138

158:                                              ; preds = %138
  %159 = load i32, i32* %7, align 4
  %160 = icmp ne i32 %159, 1
  br i1 %160, label %161, label %186

161:                                              ; preds = %158
  %162 = load i32, i32* %7, align 4
  %163 = call i32 (i8*, ...) @printf(i8* getelementptr inbounds ([4 x i8], [4 x i8]* @.str.2, i64 0, i64 0), i32 %162)
  store i32 0, i32* %4, align 4
  br label %164

164:                                              ; preds = %182, %161
  %165 = load i32, i32* %4, align 4
  %166 = load i32, i32* %9, align 4
  %167 = icmp slt i32 %165, %166
  br i1 %167, label %168, label %185

168:                                              ; preds = %164
  %169 = load i32, i32* %4, align 4
  %170 = sext i32 %169 to i64
  %171 = getelementptr inbounds i32, i32* %27, i64 %170
  %172 = load i32, i32* %171, align 4
  %173 = load i32, i32* %7, align 4
  %174 = icmp eq i32 %172, %173
  br i1 %174, label %175, label %181

175:                                              ; preds = %168
  %176 = load i32, i32* %4, align 4
  %177 = sext i32 %176 to i64
  %178 = mul nsw i64 %177, %35
  %179 = getelementptr inbounds i8, i8* %37, i64 %178
  %180 = call i32 (i8*, ...) @printf(i8* getelementptr inbounds ([4 x i8], [4 x i8]* @.str.3, i64 0, i64 0), i8* %179)
  br label %181

181:                                              ; preds = %175, %168
  br label %182

182:                                              ; preds = %181
  %183 = load i32, i32* %4, align 4
  %184 = add nsw i32 %183, 1
  store i32 %184, i32* %4, align 4
  br label %164

185:                                              ; preds = %164
  br label %188

186:                                              ; preds = %158
  %187 = call i32 (i8*, ...) @printf(i8* getelementptr inbounds ([4 x i8], [4 x i8]* @.str.4, i64 0, i64 0))
  br label %188

188:                                              ; preds = %186, %185
  store i32 0, i32* %1, align 4
  %189 = load i8*, i8** %10, align 8
  call void @llvm.stackrestore(i8* %189)
  %190 = load i32, i32* %1, align 4
  ret i32 %190
}